target datalayout = "e-m:e-p270:32:32-p271:32:32-p272:64:64-i64:64-i128:128-f80:128-n8:16:32:64-S128"
target triple = "x86_64-unknown-linux-gnu"

%"struct.std::_Vector_base" = type { %"struct.std::_Vector_base<std::__cxx11::basic_string<char>, std::allocator<std::__cxx11::basic_string<char>>>::_Vector_impl" }
%"struct.std::_Vector_base<std::__cxx11::basic_string<char>, std::allocator<std::__cxx11::basic_string<char>>>::_Vector_impl" = type { %"struct.std::_Vector_base<std::__cxx11::basic_string<char>, std::allocator<std::__cxx11::basic_string<char>>>::_Vector_impl_data" }
%"struct.std::_Vector_base<std::__cxx11::basic_string<char>, std::allocator<std::__cxx11::basic_string<char>>>::_Vector_impl_data" = type { ptr, ptr, ptr }
%"class.Assimp::CIOStreamWrapper" = type { %"class.Assimp::IOStream", ptr, ptr }
%"class.Assimp::IOStream" = type { ptr }
%"class.Assimp::CIOSystemWrapper" = type { %"class.Assimp::IOSystem", ptr }
%"class.Assimp::IOSystem" = type { ptr, %"class.std::vector" }
%"class.std::vector" = type { %"struct.std::_Vector_base" }
%struct.aiFileIO = type { ptr, ptr, ptr }

; Function Attrs: mustprogress nounwind uwtable
define linkonce_odr void @_ZN6Assimp8IOStreamD2Ev(ptr noundef nonnull align 8 dereferenceable(8) %this) unnamed_addr #0 comdat align 2 {
entry:
  %this.addr = alloca ptr, align 8
  store ptr %this, ptr %this.addr, align 8
  ret void
}

; Function Attrs: mustprogress nounwind uwtable
define hidden void @_ZN6Assimp16CIOStreamWrapperD2Ev(ptr noundef nonnull align 8 dereferenceable(24) %this) unnamed_addr #0 align 2 personality ptr @__gxx_personality_v0 {
entry:
  %this.addr = alloca ptr, align 8
  store ptr %this, ptr %this.addr, align 8
  %this1 = load ptr, ptr %this.addr, align 8
  %mFile = getelementptr inbounds %"class.Assimp::CIOStreamWrapper", ptr %this1, i32 0, i32 1
  %0 = load ptr, ptr %mFile, align 8
  %cmp = icmp ne ptr %0, null
  br i1 %cmp, label %if.then, label %if.end

if.then:                                          ; preds = %entry
  %mIO = getelementptr inbounds %"class.Assimp::CIOStreamWrapper", ptr %this1, i32 0, i32 2
  %1 = load ptr, ptr %mIO, align 8
  %mFileSystem = getelementptr inbounds %"class.Assimp::CIOSystemWrapper", ptr %1, i32 0, i32 1
  %2 = load ptr, ptr %mFileSystem, align 8
  %CloseProc = getelementptr inbounds %struct.aiFileIO, ptr %2, i32 0, i32 1
  %3 = load ptr, ptr %CloseProc, align 8
  %mIO2 = getelementptr inbounds %"class.Assimp::CIOStreamWrapper", ptr %this1, i32 0, i32 2
  %4 = load ptr, ptr %mIO2, align 8
  %mFileSystem3 = getelementptr inbounds %"class.Assimp::CIOSystemWrapper", ptr %4, i32 0, i32 1
  %5 = load ptr, ptr %mFileSystem3, align 8
  %mFile4 = getelementptr inbounds %"class.Assimp::CIOStreamWrapper", ptr %this1, i32 0, i32 1
  %6 = load ptr, ptr %mFile4, align 8
  invoke void %3(ptr noundef %5, ptr noundef %6)
          to label %invoke.cont unwind label %terminate.lpad

invoke.cont:                                      ; preds = %if.then
  br label %if.end

if.end:                                           ; preds = %invoke.cont, %entry
  call void @_ZN6Assimp8IOStreamD2Ev(ptr noundef nonnull align 8 dereferenceable(8) %this1) #10
  ret void

terminate.lpad:                                   ; preds = %if.then
  %7 = landingpad { ptr, i32 }
          catch ptr null
  %8 = extractvalue { ptr, i32 } %7, 0
  call void @__clang_call_terminate(ptr %8) #9
  unreachable
}