; Function Attrs: mustprogress nounwind uwtable
define hidden void @_ZN6Assimp16CIOStreamWrapperD2Ev(ptr nocapture noundef nonnull readonly align 8 dereferenceable(24) %this) unnamed_addr #1 align 2 personality ptr @__gxx_personality_v0 {
entry:
  %mFile = getelementptr inbounds i8, ptr %this, i64 8
  %0 = load ptr, ptr %mFile, align 8
  %cmp.not = icmp eq ptr %0, null
  br i1 %cmp.not, label %if.end, label %if.then

if.then:                                          ; preds = %entry
  %mIO = getelementptr inbounds i8, ptr %this, i64 16
  %1 = load ptr, ptr %mIO, align 8
  %mFileSystem = getelementptr inbounds i8, ptr %1, i64 32
  %2 = load ptr, ptr %mFileSystem, align 8
  %CloseProc = getelementptr inbounds i8, ptr %2, i64 8
  %3 = load ptr, ptr %CloseProc, align 8
  invoke void %3(ptr noundef nonnull %2, ptr noundef nonnull %0)
          to label %if.end unwind label %terminate.lpad

if.end:                                           ; preds = %if.then, %entry
  ret void

terminate.lpad:                                   ; preds = %if.then
  %4 = landingpad { ptr, i32 }
          catch ptr null
  %5 = extractvalue { ptr, i32 } %4, 0
  tail call void @__clang_call_terminate(ptr %5) #12
  unreachable
}